target datalayout = "e-m:e-p270:32:32-p271:32:32-p272:64:64-i64:64-i128:128-f80:128-n8:16:32:64-S128"
target triple = "x86_64-pc-linux-gnu"

%struct.grpc_context_info_t = type { i8, i32, ptr, ptr, ptr }
%struct._packet_info = type { ptr, ptr, i32, i32, %struct.nstime_t, %struct.nstime_t, %struct.nstime_t, i8, ptr, ptr, ptr, ptr, %struct._address, %struct._address, %struct._address, %struct._address, %struct._address, %struct._address, i32, ptr, i8, [3 x i8], %struct.anon, i32, i32, i32, i32, ptr, i8, ptr, ptr, i16, i16, i32, i32, i16, i32, i32, ptr, ptr, ptr, i8, i8, i16, i16, i16, i32, i16, i16, ptr, ptr, ptr, ptr, ptr, i32, i32 }
%struct.nstime_t = type { i64, i32 }
%struct._address = type { i32, i32, ptr, ptr }
%struct.anon = type { i8, [3 x i8] }

@.str.81 = private unnamed_addr constant [20 x i8] c"Decoded base64 body\00", align 1

; Function Attrs: null_pointer_is_valid sspstrong uwtable
define internal i32 @dissect_grpc_web_text(ptr noundef %0, ptr noundef %1, ptr noundef %2, ptr noundef %3) #0 {
  %5 = alloca ptr, align 8
  %6 = alloca ptr, align 8
  %7 = alloca ptr, align 8
  %8 = alloca ptr, align 8
  %9 = alloca i32, align 4
  %10 = alloca ptr, align 8
  %11 = alloca ptr, align 8
  %12 = alloca ptr, align 8
  store ptr %0, ptr %5, align 8
  store ptr %1, ptr %6, align 8
  store ptr %2, ptr %7, align 8
  store ptr %3, ptr %8, align 8
  call void @llvm.lifetime.start.p0(i64 4, ptr %9) #8
  call void @llvm.lifetime.start.p0(i64 8, ptr %10) #8
  call void @llvm.lifetime.start.p0(i64 8, ptr %11) #8
  call void @llvm.lifetime.start.p0(i64 8, ptr %12) #8
  %13 = load ptr, ptr %8, align 8
  store ptr %13, ptr %12, align 8
  %14 = load ptr, ptr %5, align 8
  %15 = load ptr, ptr %5, align 8
  %16 = call i32 @tvb_reported_length(ptr noundef %15)
  %17 = call ptr @base64_tvb_to_new_tvb(ptr noundef %14, i32 noundef 0, i32 noundef %16)
  store ptr %17, ptr %10, align 8
  %18 = load ptr, ptr %6, align 8
  %19 = load ptr, ptr %10, align 8
  call void @add_new_data_source(ptr noundef %18, ptr noundef %19, ptr noundef @.str.81)
  %20 = load ptr, ptr %6, align 8
  %21 = load ptr, ptr %12, align 8
  %22 = call ptr @get_grpc_context(ptr noundef %20, ptr noundef %21)
  store ptr %22, ptr %11, align 8
  %23 = load ptr, ptr %11, align 8
  %24 = getelementptr inbounds nuw %struct.grpc_context_info_t, ptr %23, i32 0, i32 1
  store i32 2, ptr %24, align 4
  %25 = load ptr, ptr %10, align 8
  %26 = load ptr, ptr %6, align 8
  %27 = load ptr, ptr %7, align 8
  %28 = load ptr, ptr %11, align 8
  %29 = call i32 @dissect_grpc_common(ptr noundef %25, ptr noundef %26, ptr noundef %27, ptr noundef %28)
  store i32 %29, ptr %9, align 4
  %30 = load ptr, ptr %6, align 8
  %31 = getelementptr inbounds nuw %struct._packet_info, ptr %30, i32 0, i32 33
  %32 = load i32, ptr %31, align 4
  %33 = sdiv i32 %32, 3
  %34 = mul i32 %33, 4
  %35 = load ptr, ptr %6, align 8
  %36 = getelementptr inbounds nuw %struct._packet_info, ptr %35, i32 0, i32 33
  %37 = load i32, ptr %36, align 4
  %38 = srem i32 %37, 3
  %39 = icmp eq i32 %38, 0
  %40 = select i1 %39, i32 0, i32 4
  %41 = add i32 %34, %40
  %42 = load ptr, ptr %6, align 8
  %43 = getelementptr inbounds nuw %struct._packet_info, ptr %42, i32 0, i32 33
  store i32 %41, ptr %43, align 4
  %44 = load ptr, ptr %6, align 8
  %45 = getelementptr inbounds nuw %struct._packet_info, ptr %44, i32 0, i32 34
  %46 = load i32, ptr %45, align 8
  %47 = udiv i32 %46, 3
  %48 = mul i32 %47, 4
  %49 = load ptr, ptr %6, align 8
  %50 = getelementptr inbounds nuw %struct._packet_info, ptr %49, i32 0, i32 34
  %51 = load i32, ptr %50, align 8
  %52 = urem i32 %51, 3
  %53 = icmp eq i32 %52, 0
  %54 = select i1 %53, i32 0, i32 4
  %55 = add i32 %48, %54
  %56 = load ptr, ptr %6, align 8
  %57 = getelementptr inbounds nuw %struct._packet_info, ptr %56, i32 0, i32 34
  store i32 %55, ptr %57, align 8
  %58 = load i32, ptr %9, align 4
  call void @llvm.lifetime.end.p0(i64 8, ptr %12) #8
  call void @llvm.lifetime.end.p0(i64 8, ptr %11) #8
  call void @llvm.lifetime.end.p0(i64 8, ptr %10) #8
  call void @llvm.lifetime.end.p0(i64 4, ptr %9) #8
  ret i32 %58
}