; Function Attrs: null_pointer_is_valid sspstrong uwtable
define internal i32 @dissect_grpc_web_text(ptr noundef %0, ptr noundef %1, ptr noundef %2, ptr noundef captures(address_is_null) %3) #0 {
  %5 = tail call i32 @tvb_reported_length(ptr noundef %0)
  %6 = tail call ptr @base64_tvb_to_new_tvb(ptr noundef %0, i32 noundef 0, i32 noundef %5)
  tail call void @add_new_data_source(ptr noundef %1, ptr noundef %6, ptr noundef nonnull @.str.81)
  %7 = tail call fastcc ptr @get_grpc_context(ptr noundef %1, ptr noundef %3)
  %8 = getelementptr inbounds nuw i8, ptr %7, i64 4
  store i32 2, ptr %8, align 4
  %9 = tail call fastcc i32 @dissect_grpc_common(ptr noundef %6, ptr noundef %1, ptr noundef %2, ptr noundef %7)
  %10 = getelementptr inbounds nuw i8, ptr %1, i64 332
  %11 = load i32, ptr %10, align 4
  %12 = sdiv i32 %11, 3
  %13 = shl i32 %12, 2
  %14 = srem i32 %11, 3
  %15 = icmp eq i32 %14, 0
  %16 = select i1 %15, i32 0, i32 4
  %17 = add i32 %16, %13
  store i32 %17, ptr %10, align 4
  %18 = getelementptr inbounds nuw i8, ptr %1, i64 336
  %19 = load i32, ptr %18, align 8
  %20 = udiv i32 %19, 3
  %21 = shl i32 %20, 2
  %22 = urem i32 %19, 3
  %23 = icmp eq i32 %22, 0
  %24 = select i1 %23, i32 0, i32 4
  %25 = add i32 %24, %21
  store i32 %25, ptr %18, align 8
  ret i32 %9
}